target datalayout = "e-m:e-p270:32:32-p271:32:32-p272:64:64-i64:64-i128:128-f80:128-n8:16:32:64-S128"
target triple = "x86_64-pc-linux-gnu"

%struct.iter_t = type { i64, i64, i64, i64, i64, i64, i64, i64, i64, ptr, i32, ptr, %struct.ohdr_info_t, i64, ptr, i32, ptr, i32, [32 x i64], i64, ptr, [4 x i64], [8 x i64], i64, ptr, i32, ptr, %struct.ohdr_info_t, i64, i64, %struct.ohdr_info_t, i64, i64, i64, i64, i64, i64, i64, i64, i64, i64, i32, i8, i64, i64, i64, i64, [10 x i64], i32, ptr, i64, i64, i64, i32 }
%struct.ohdr_info_t = type { i64, i64 }
%struct.H5L_info2_t = type { i32, i8, i64, i32, %union.anon.5 }
%union.anon.5 = type { i64, [8 x i8] }

; Function Attrs: nounwind uwtable
define internal i32 @lnk_stats(ptr noundef %0, ptr noundef %1, ptr noundef %2) #0 {
  %4 = alloca ptr, align 8
  %5 = alloca ptr, align 8
  %6 = alloca ptr, align 8
  %7 = alloca ptr, align 8
  store ptr %0, ptr %4, align 8, !tbaa !11
  store ptr %1, ptr %5, align 8, !tbaa !69
  store ptr %2, ptr %6, align 8, !tbaa !69
  call void @llvm.lifetime.start.p0(i64 8, ptr %7) #10
  %8 = load ptr, ptr %6, align 8, !tbaa !69
  store ptr %8, ptr %7, align 8, !tbaa !57
  %9 = load ptr, ptr %5, align 8, !tbaa !69
  %10 = getelementptr inbounds nuw %struct.H5L_info2_t, ptr %9, i32 0, i32 0
  %11 = load i32, ptr %10, align 8, !tbaa !78
  switch i32 %11, label %18 [
    i32 1, label %12
    i32 64, label %12
    i32 0, label %17
    i32 255, label %17
    i32 -1, label %17
  ]

12:                                               ; preds = %3, %3
  %13 = load ptr, ptr %7, align 8, !tbaa !57
  %14 = getelementptr inbounds nuw %struct.iter_t, ptr %13, i32 0, i32 5
  %15 = load i64, ptr %14, align 8, !tbaa !80
  %16 = add i64 %15, 1
  store i64 %16, ptr %14, align 8, !tbaa !80
  br label %23

17:                                               ; preds = %3, %3, %3
  br label %18

18:                                               ; preds = %3, %17
  %19 = load ptr, ptr %7, align 8, !tbaa !57
  %20 = getelementptr inbounds nuw %struct.iter_t, ptr %19, i32 0, i32 6
  %21 = load i64, ptr %20, align 8, !tbaa !77
  %22 = add i64 %21, 1
  store i64 %22, ptr %20, align 8, !tbaa !77
  br label %23

23:                                               ; preds = %18, %12
  call void @llvm.lifetime.end.p0(i64 8, ptr %7) #10
  ret i32 0
}