; Function Attrs: mustprogress nofree norecurse nosync nounwind willreturn memory(argmem: readwrite) uwtable
define internal noundef i32 @lnk_stats(ptr readnone captures(none) %0, ptr noundef readonly captures(none) %1, ptr noundef captures(none) %2) #7 {
  %4 = load i32, ptr %1, align 8, !tbaa !111
  %switch.selectcmp.case1 = icmp eq i32 %4, 1
  %switch.selectcmp.case2 = icmp eq i32 %4, 64
  %switch.selectcmp = or i1 %switch.selectcmp.case1, %switch.selectcmp.case2
  %5 = select i1 %switch.selectcmp, i64 40, i64 48
  %6 = getelementptr inbounds nuw i8, ptr %2, i64 %5
  %7 = load i64, ptr %6, align 8, !tbaa !18
  %8 = add i64 %7, 1
  store i64 %8, ptr %6, align 8, !tbaa !18
  ret i32 0
}